target datalayout = "e-m:e-p270:32:32-p271:32:32-p272:64:64-i64:64-i128:128-f80:128-n8:16:32:64-S128"
target triple = "x86_64-pc-linux-gnu"

%struct.GtkRequisition = type { i32, i32 }
%struct.GtkMisc = type { %struct._GtkWidget, float, float, i16, i16 }
%struct._GtkWidget = type { %struct.GtkObject, i16, i8, i8, ptr, ptr, %struct.GtkRequisition, %struct.GtkAllocation, ptr, ptr }
%struct.GtkObject = type { %struct.GObject, i32 }
%struct.GObject = type { %struct.GTypeInstance, i32, ptr }
%struct.GTypeInstance = type { ptr }
%struct.GtkAllocation = type { i32, i32, i32, i32 }

@fp_gtk_paint_arrow = internal global ptr null, align 8
@fp_gtk_arrow_new = internal global ptr null, align 8
@fp_gtk_container_add = internal global ptr null, align 8
@fp_gtk_widget_realize = internal global ptr null, align 8
@fp_gtk_arrow_set = internal global ptr null, align 8
@fp_gtk_widget_size_request = internal global ptr null, align 8
@gtk2_widgets = internal global [42 x ptr] zeroinitializer, align 16
@gtk2_white_pixmap = internal global ptr null, align 8
@gtk2_black_pixmap = internal global ptr null, align 8
@gtk2_paint_arrow.w = internal global i32 0, align 4
@gtk2_paint_arrow.h = internal global i32 0, align 4
@gtk2_paint_arrow.size = internal global %struct.GtkRequisition zeroinitializer, align 4
@gtk2_widget = internal global ptr null, align 8
@gtk2_fixed = internal global ptr null, align 8

; Function Attrs: nounwind uwtable
define internal ptr @gtk2_get_arrow(i32 noundef %0, i32 noundef %1) #0 {
  %3 = alloca i32, align 4
  %4 = alloca i32, align 4
  %5 = alloca ptr, align 8
  store i32 %0, ptr %3, align 4
  store i32 %1, ptr %4, align 4
  store ptr null, ptr %5, align 8
  %6 = load ptr, ptr @gtk2_widgets, align 16
  %7 = icmp eq ptr null, %6
  br i1 %7, label %8, label %18

8:                                                ; preds = %2
  %9 = load ptr, ptr @fp_gtk_arrow_new, align 8
  %10 = load i32, ptr %3, align 4
  %11 = load i32, ptr %4, align 4
  %12 = call ptr %9(i32 noundef %10, i32 noundef %11)
  store ptr %12, ptr @gtk2_widgets, align 16
  %13 = load ptr, ptr @fp_gtk_container_add, align 8
  %14 = load ptr, ptr @gtk2_fixed, align 8
  %15 = load ptr, ptr @gtk2_widgets, align 16
  call void %13(ptr noundef %14, ptr noundef %15)
  %16 = load ptr, ptr @fp_gtk_widget_realize, align 8
  %17 = load ptr, ptr @gtk2_widgets, align 16
  call void %16(ptr noundef %17)
  br label %18

18:                                               ; preds = %8, %2
  %19 = load ptr, ptr @gtk2_widgets, align 16
  store ptr %19, ptr %5, align 8
  %20 = load ptr, ptr @fp_gtk_arrow_set, align 8
  %21 = load ptr, ptr %5, align 8
  %22 = load i32, ptr %3, align 4
  %23 = load i32, ptr %4, align 4
  call void %20(ptr noundef %21, i32 noundef %22, i32 noundef %23)
  %24 = load ptr, ptr %5, align 8
  ret ptr %24
}

; Function Attrs: nounwind uwtable
define hidden void @gtk2_paint_arrow(i32 noundef %0, i32 noundef %1, i32 noundef %2, ptr noundef %3, i32 noundef %4, i32 noundef %5, i32 noundef %6, i32 noundef %7, i32 noundef %8, i32 noundef %9) #0 {
  %11 = alloca i32, align 4
  %12 = alloca i32, align 4
  %13 = alloca i32, align 4
  %14 = alloca ptr, align 8
  %15 = alloca i32, align 4
  %16 = alloca i32, align 4
  %17 = alloca i32, align 4
  %18 = alloca i32, align 4
  %19 = alloca i32, align 4
  %20 = alloca i32, align 4
  store i32 %0, ptr %11, align 4
  store i32 %1, ptr %12, align 4
  store i32 %2, ptr %13, align 4
  store ptr %3, ptr %14, align 8
  store i32 %4, ptr %15, align 4
  store i32 %5, ptr %16, align 4
  store i32 %6, ptr %17, align 4
  store i32 %7, ptr %18, align 4
  store i32 %8, ptr %19, align 4
  store i32 %9, ptr %20, align 4
  %21 = load i32, ptr %11, align 4
  %22 = icmp eq i32 %21, 5
  br i1 %22, label %26, label %23

23:                                               ; preds = %10
  %24 = load i32, ptr %11, align 4
  %25 = icmp eq i32 %24, 49
  br i1 %25, label %26, label %30

26:                                               ; preds = %23, %10
  %27 = load i32, ptr %19, align 4
  %28 = load i32, ptr %13, align 4
  %29 = call ptr @gtk2_get_arrow(i32 noundef %27, i32 noundef %28)
  store ptr %29, ptr @gtk2_widget, align 8
  br label %33

30:                                               ; preds = %23
  %31 = load i32, ptr %11, align 4
  %32 = call ptr @gtk2_get_widget(i32 noundef %31)
  store ptr %32, ptr @gtk2_widget, align 8
  br label %33

33:                                               ; preds = %30, %26
  %34 = load i32, ptr %11, align 4
  switch i32 %34, label %119 [
    i32 42, label %35
    i32 14, label %53
    i32 15, label %53
    i32 65, label %53
    i32 66, label %53
    i32 5, label %58
    i32 49, label %58
  ]

35:                                               ; preds = %33
  store i32 1, ptr %15, align 4
  %36 = load i32, ptr %19, align 4
  %37 = icmp eq i32 %36, 0
  %38 = select i1 %37, i32 2, i32 0
  store i32 %38, ptr %16, align 4
  %39 = load i32, ptr %18, align 4
  %40 = sub nsw i32 %39, 2
  store i32 %40, ptr %18, align 4
  %41 = load i32, ptr %17, align 4
  %42 = sub nsw i32 %41, 3
  store i32 %42, ptr %17, align 4
  %43 = load i32, ptr %17, align 4
  %44 = sdiv i32 %43, 2
  store i32 %44, ptr @gtk2_paint_arrow.w, align 4
  %45 = load i32, ptr @gtk2_paint_arrow.w, align 4
  %46 = srem i32 %45, 2
  %47 = sub nsw i32 %46, 1
  %48 = load i32, ptr @gtk2_paint_arrow.w, align 4
  %49 = sub nsw i32 %48, %47
  store i32 %49, ptr @gtk2_paint_arrow.w, align 4
  %50 = load i32, ptr @gtk2_paint_arrow.w, align 4
  %51 = add nsw i32 %50, 1
  %52 = sdiv i32 %51, 2
  store i32 %52, ptr @gtk2_paint_arrow.h, align 4
  br label %122

53:                                               ; preds = %33, %33, %33, %33
  %54 = load i32, ptr %17, align 4
  %55 = sdiv i32 %54, 2
  store i32 %55, ptr @gtk2_paint_arrow.w, align 4
  %56 = load i32, ptr %18, align 4
  %57 = sdiv i32 %56, 2
  store i32 %57, ptr @gtk2_paint_arrow.h, align 4
  br label %122

58:                                               ; preds = %33, %33
  store i32 1, ptr %15, align 4
  %59 = load ptr, ptr @fp_gtk_widget_size_request, align 8
  %60 = load ptr, ptr @gtk2_widget, align 8
  call void %59(ptr noundef %60, ptr noundef @gtk2_paint_arrow.size)
  %61 = load i32, ptr @gtk2_paint_arrow.size, align 4
  %62 = load ptr, ptr @gtk2_widget, align 8
  %63 = getelementptr inbounds %struct.GtkMisc, ptr %62, i32 0, i32 3
  %64 = load i16, ptr %63, align 8
  %65 = zext i16 %64 to i32
  %66 = mul nsw i32 %65, 2
  %67 = sub nsw i32 %61, %66
  store i32 %67, ptr @gtk2_paint_arrow.w, align 4
  %68 = load i32, ptr getelementptr inbounds (%struct.GtkRequisition, ptr @gtk2_paint_arrow.size, i32 0, i32 1), align 4
  %69 = load ptr, ptr @gtk2_widget, align 8
  %70 = getelementptr inbounds %struct.GtkMisc, ptr %69, i32 0, i32 4
  %71 = load i16, ptr %70, align 2
  %72 = zext i16 %71 to i32
  %73 = mul nsw i32 %72, 2
  %74 = sub nsw i32 %68, %73
  store i32 %74, ptr @gtk2_paint_arrow.h, align 4
  %75 = load i32, ptr @gtk2_paint_arrow.w, align 4
  %76 = load i32, ptr @gtk2_paint_arrow.h, align 4
  %77 = icmp slt i32 %75, %76
  br i1 %77, label %78, label %80

78:                                               ; preds = %58
  %79 = load i32, ptr @gtk2_paint_arrow.w, align 4
  br label %82

80:                                               ; preds = %58
  %81 = load i32, ptr @gtk2_paint_arrow.h, align 4
  br label %82

82:                                               ; preds = %80, %78
  %83 = phi i32 [ %79, %78 ], [ %81, %80 ]
  %84 = load i32, ptr %17, align 4
  %85 = load i32, ptr %18, align 4
  %86 = icmp slt i32 %84, %85
  br i1 %86, label %87, label %89

87:                                               ; preds = %82
  %88 = load i32, ptr %17, align 4
  br label %91

89:                                               ; preds = %82
  %90 = load i32, ptr %18, align 4
  br label %91

91:                                               ; preds = %89, %87
  %92 = phi i32 [ %88, %87 ], [ %90, %89 ]
  %93 = icmp slt i32 %83, %92
  br i1 %93, label %94, label %104

94:                                               ; preds = %91
  %95 = load i32, ptr @gtk2_paint_arrow.w, align 4
  %96 = load i32, ptr @gtk2_paint_arrow.h, align 4
  %97 = icmp slt i32 %95, %96
  br i1 %97, label %98, label %100

98:                                               ; preds = %94
  %99 = load i32, ptr @gtk2_paint_arrow.w, align 4
  br label %102

100:                                              ; preds = %94
  %101 = load i32, ptr @gtk2_paint_arrow.h, align 4
  br label %102

102:                                              ; preds = %100, %98
  %103 = phi i32 [ %99, %98 ], [ %101, %100 ]
  br label %114

104:                                              ; preds = %91
  %105 = load i32, ptr %17, align 4
  %106 = load i32, ptr %18, align 4
  %107 = icmp slt i32 %105, %106
  br i1 %107, label %108, label %110

108:                                              ; preds = %104
  %109 = load i32, ptr %17, align 4
  br label %112

110:                                              ; preds = %104
  %111 = load i32, ptr %18, align 4
  br label %112

112:                                              ; preds = %110, %108
  %113 = phi i32 [ %109, %108 ], [ %111, %110 ]
  br label %114

114:                                              ; preds = %112, %102
  %115 = phi i32 [ %103, %102 ], [ %113, %112 ]
  %116 = sitofp i32 %115 to double
  %117 = fmul double %116, 0x3FE6666666666666
  %118 = fptosi double %117 to i32
  store i32 %118, ptr @gtk2_paint_arrow.h, align 4
  store i32 %118, ptr @gtk2_paint_arrow.w, align 4
  br label %122

119:                                              ; preds = %33
  %120 = load i32, ptr %17, align 4
  store i32 %120, ptr @gtk2_paint_arrow.w, align 4
  %121 = load i32, ptr %18, align 4
  store i32 %121, ptr @gtk2_paint_arrow.h, align 4
  br label %122

122:                                              ; preds = %119, %114, %53, %35
  %123 = load i32, ptr %17, align 4
  %124 = load i32, ptr @gtk2_paint_arrow.w, align 4
  %125 = sub nsw i32 %123, %124
  %126 = sdiv i32 %125, 2
  %127 = load i32, ptr %15, align 4
  %128 = add nsw i32 %127, %126
  store i32 %128, ptr %15, align 4
  %129 = load i32, ptr %18, align 4
  %130 = load i32, ptr @gtk2_paint_arrow.h, align 4
  %131 = sub nsw i32 %129, %130
  %132 = sdiv i32 %131, 2
  %133 = load i32, ptr %16, align 4
  %134 = add nsw i32 %133, %132
  store i32 %134, ptr %16, align 4
  %135 = load ptr, ptr @fp_gtk_paint_arrow, align 8
  %136 = load ptr, ptr @gtk2_widget, align 8
  %137 = getelementptr inbounds %struct._GtkWidget, ptr %136, i32 0, i32 5
  %138 = load ptr, ptr %137, align 8
  %139 = load ptr, ptr @gtk2_white_pixmap, align 8
  %140 = load i32, ptr %12, align 4
  %141 = load i32, ptr %13, align 4
  %142 = load ptr, ptr @gtk2_widget, align 8
  %143 = load ptr, ptr %14, align 8
  %144 = load i32, ptr %19, align 4
  %145 = load i32, ptr %20, align 4
  %146 = load i32, ptr %15, align 4
  %147 = load i32, ptr %16, align 4
  %148 = load i32, ptr @gtk2_paint_arrow.w, align 4
  %149 = load i32, ptr @gtk2_paint_arrow.h, align 4
  call void %135(ptr noundef %138, ptr noundef %139, i32 noundef %140, i32 noundef %141, ptr noundef null, ptr noundef %142, ptr noundef %143, i32 noundef %144, i32 noundef %145, i32 noundef %146, i32 noundef %147, i32 noundef %148, i32 noundef %149)
  %150 = load ptr, ptr @fp_gtk_paint_arrow, align 8
  %151 = load ptr, ptr @gtk2_widget, align 8
  %152 = getelementptr inbounds %struct._GtkWidget, ptr %151, i32 0, i32 5
  %153 = load ptr, ptr %152, align 8
  %154 = load ptr, ptr @gtk2_black_pixmap, align 8
  %155 = load i32, ptr %12, align 4
  %156 = load i32, ptr %13, align 4
  %157 = load ptr, ptr @gtk2_widget, align 8
  %158 = load ptr, ptr %14, align 8
  %159 = load i32, ptr %19, align 4
  %160 = load i32, ptr %20, align 4
  %161 = load i32, ptr %15, align 4
  %162 = load i32, ptr %16, align 4
  %163 = load i32, ptr @gtk2_paint_arrow.w, align 4
  %164 = load i32, ptr @gtk2_paint_arrow.h, align 4
  call void %150(ptr noundef %153, ptr noundef %154, i32 noundef %155, i32 noundef %156, ptr noundef null, ptr noundef %157, ptr noundef %158, i32 noundef %159, i32 noundef %160, i32 noundef %161, i32 noundef %162, i32 noundef %163, i32 noundef %164)
  ret void
}