; Function Attrs: nounwind uwtable
define hidden void @gtk2_paint_arrow(i32 noundef %0, i32 noundef %1, i32 noundef %2, ptr noundef %3, i32 noundef %4, i32 noundef %5, i32 noundef %6, i32 noundef %7, i32 noundef %8, i32 noundef %9) #0 {
  switch i32 %0, label %23 [
    i32 49, label %11
    i32 5, label %11
  ]

11:                                               ; preds = %10, %10
  %12 = load ptr, ptr @gtk2_widgets, align 16
  %13 = icmp eq ptr %12, null
  br i1 %13, label %14, label %gtk2_get_arrow.exit

14:                                               ; preds = %11
  %15 = load ptr, ptr @fp_gtk_arrow_new, align 8
  %16 = tail call ptr %15(i32 noundef %8, i32 noundef %2) #18
  store ptr %16, ptr @gtk2_widgets, align 16
  %17 = load ptr, ptr @fp_gtk_container_add, align 8
  %18 = load ptr, ptr @gtk2_fixed, align 8
  tail call void %17(ptr noundef %18, ptr noundef %16) #18
  %19 = load ptr, ptr @fp_gtk_widget_realize, align 8
  %20 = load ptr, ptr @gtk2_widgets, align 16
  tail call void %19(ptr noundef %20) #18
  %.pre.i = load ptr, ptr @gtk2_widgets, align 16
  br label %gtk2_get_arrow.exit

gtk2_get_arrow.exit:                              ; preds = %11, %14
  %21 = phi ptr [ %.pre.i, %14 ], [ %12, %11 ]
  %22 = load ptr, ptr @fp_gtk_arrow_set, align 8
  tail call void %22(ptr noundef %21, i32 noundef %8, i32 noundef %2) #18
  br label %25

23:                                               ; preds = %10
  %24 = tail call fastcc ptr @gtk2_get_widget(i32 noundef %0)
  br label %25

25:                                               ; preds = %23, %gtk2_get_arrow.exit
  %storemerge = phi ptr [ %24, %23 ], [ %21, %gtk2_get_arrow.exit ]
  store ptr %storemerge, ptr @gtk2_widget, align 8
  switch i32 %0, label %59 [
    i32 42, label %26
    i32 14, label %36
    i32 15, label %36
    i32 65, label %36
    i32 66, label %36
    i32 5, label %39
    i32 49, label %39
  ]

26:                                               ; preds = %25
  %27 = icmp eq i32 %8, 0
  %28 = select i1 %27, i32 2, i32 0
  %29 = add nsw i32 %7, -2
  %30 = add nsw i32 %6, -3
  %31 = sdiv i32 %30, 2
  %32 = srem i32 %31, 2
  %.neg46 = add nsw i32 %31, 1
  %33 = sub nsw i32 %.neg46, %32
  store i32 %33, ptr @gtk2_paint_arrow.w, align 4
  %34 = add nsw i32 %33, 1
  %35 = sdiv i32 %34, 2
  store i32 %35, ptr @gtk2_paint_arrow.h, align 4
  br label %60

36:                                               ; preds = %25, %25, %25, %25
  %37 = sdiv i32 %6, 2
  store i32 %37, ptr @gtk2_paint_arrow.w, align 4
  %38 = sdiv i32 %7, 2
  store i32 %38, ptr @gtk2_paint_arrow.h, align 4
  br label %60

39:                                               ; preds = %25, %25
  %40 = load ptr, ptr @fp_gtk_widget_size_request, align 8
  tail call void %40(ptr noundef %storemerge, ptr noundef nonnull @gtk2_paint_arrow.size) #18
  %41 = load i32, ptr @gtk2_paint_arrow.size, align 4
  %42 = load ptr, ptr @gtk2_widget, align 8
  %43 = getelementptr inbounds i8, ptr %42, i64 104
  %44 = load i16, ptr %43, align 8
  %45 = zext i16 %44 to i32
  %46 = shl nuw nsw i32 %45, 1
  %47 = sub nsw i32 %41, %46
  %48 = load i32, ptr getelementptr inbounds (i8, ptr @gtk2_paint_arrow.size, i64 4), align 4
  %49 = getelementptr inbounds i8, ptr %42, i64 106
  %50 = load i16, ptr %49, align 2
  %51 = zext i16 %50 to i32
  %52 = shl nuw nsw i32 %51, 1
  %53 = sub nsw i32 %48, %52
  %54 = tail call i32 @llvm.smin.i32(i32 %47, i32 %53)
  %55 = tail call i32 @llvm.smin.i32(i32 %6, i32 %7)
  %. = tail call i32 @llvm.smin.i32(i32 %54, i32 %55)
  %56 = sitofp i32 %. to double
  %57 = fmul double %56, 0x3FE6666666666666
  %58 = fptosi double %57 to i32
  store i32 %58, ptr @gtk2_paint_arrow.h, align 4
  store i32 %58, ptr @gtk2_paint_arrow.w, align 4
  br label %60

59:                                               ; preds = %25
  store i32 %6, ptr @gtk2_paint_arrow.w, align 4
  store i32 %7, ptr @gtk2_paint_arrow.h, align 4
  br label %60

60:                                               ; preds = %59, %39, %36, %26
  %61 = phi ptr [ %storemerge, %59 ], [ %42, %39 ], [ %storemerge, %36 ], [ %storemerge, %26 ]
  %62 = phi i32 [ %7, %59 ], [ %58, %39 ], [ %38, %36 ], [ %35, %26 ]
  %63 = phi i32 [ %6, %59 ], [ %58, %39 ], [ %37, %36 ], [ %33, %26 ]
  %.042 = phi i32 [ %6, %59 ], [ %6, %39 ], [ %6, %36 ], [ %30, %26 ]
  %.041 = phi i32 [ %7, %59 ], [ %7, %39 ], [ %7, %36 ], [ %29, %26 ]
  %.040 = phi i32 [ %5, %59 ], [ %5, %39 ], [ %5, %36 ], [ %28, %26 ]
  %.0 = phi i32 [ %4, %59 ], [ 1, %39 ], [ %4, %36 ], [ 1, %26 ]
  %64 = sub nsw i32 %.042, %63
  %65 = sdiv i32 %64, 2
  %66 = add nsw i32 %65, %.0
  %67 = sub nsw i32 %.041, %62
  %68 = sdiv i32 %67, 2
  %69 = add nsw i32 %68, %.040
  %70 = load ptr, ptr @fp_gtk_paint_arrow, align 8
  %71 = getelementptr inbounds i8, ptr %61, i64 48
  %72 = load ptr, ptr %71, align 8
  %73 = load ptr, ptr @gtk2_white_pixmap, align 8
  tail call void %70(ptr noundef %72, ptr noundef %73, i32 noundef %1, i32 noundef %2, ptr noundef null, ptr noundef %61, ptr noundef %3, i32 noundef %8, i32 noundef %9, i32 noundef %66, i32 noundef %69, i32 noundef %63, i32 noundef %62) #18
  %74 = load ptr, ptr @fp_gtk_paint_arrow, align 8
  %75 = load ptr, ptr @gtk2_widget, align 8
  %76 = getelementptr inbounds i8, ptr %75, i64 48
  %77 = load ptr, ptr %76, align 8
  %78 = load ptr, ptr @gtk2_black_pixmap, align 8
  %79 = load i32, ptr @gtk2_paint_arrow.w, align 4
  %80 = load i32, ptr @gtk2_paint_arrow.h, align 4
  tail call void %74(ptr noundef %77, ptr noundef %78, i32 noundef %1, i32 noundef %2, ptr noundef null, ptr noundef %75, ptr noundef %3, i32 noundef %8, i32 noundef %9, i32 noundef %66, i32 noundef %69, i32 noundef %79, i32 noundef %80) #18
  ret void
}